
Controller.elf:     file format elf32-avr

Sections:
Idx Name          Size      VMA       LMA       File off  Algn
  0 .text         0000044c  00000000  00000000  00000094  2**1
                  CONTENTS, ALLOC, LOAD, READONLY, CODE
  1 .data         00000006  00800060  0000044c  000004e0  2**0
                  CONTENTS, ALLOC, LOAD, DATA
  2 .bss          0000001f  00800066  00800066  000004e6  2**0
                  ALLOC
  3 .comment      00000030  00000000  00000000  000004e6  2**0
                  CONTENTS, READONLY
  4 .note.gnu.avr.deviceinfo 0000003c  00000000  00000000  00000518  2**2
                  CONTENTS, READONLY
  5 .debug_aranges 00000078  00000000  00000000  00000554  2**0
                  CONTENTS, READONLY, DEBUGGING
  6 .debug_info   00000b9f  00000000  00000000  000005cc  2**0
                  CONTENTS, READONLY, DEBUGGING
  7 .debug_abbrev 00000718  00000000  00000000  0000116b  2**0
                  CONTENTS, READONLY, DEBUGGING
  8 .debug_line   00000486  00000000  00000000  00001883  2**0
                  CONTENTS, READONLY, DEBUGGING
  9 .debug_frame  00000174  00000000  00000000  00001d0c  2**2
                  CONTENTS, READONLY, DEBUGGING
 10 .debug_str    0000058e  00000000  00000000  00001e80  2**0
                  CONTENTS, READONLY, DEBUGGING
 11 .debug_loc    000005b5  00000000  00000000  0000240e  2**0
                  CONTENTS, READONLY, DEBUGGING
 12 .debug_ranges 00000068  00000000  00000000  000029c3  2**0
                  CONTENTS, READONLY, DEBUGGING

Disassembly of section .text:

00000000 <__vectors>:
   0:	0c 94 3b 00 	jmp	0x76	; 0x76 <__ctors_end>
   4:	0c 94 58 00 	jmp	0xb0	; 0xb0 <__bad_interrupt>
   8:	0c 94 58 00 	jmp	0xb0	; 0xb0 <__bad_interrupt>
   c:	0c 94 58 00 	jmp	0xb0	; 0xb0 <__bad_interrupt>
  10:	0c 94 58 00 	jmp	0xb0	; 0xb0 <__bad_interrupt>
  14:	0c 94 58 00 	jmp	0xb0	; 0xb0 <__bad_interrupt>
  18:	0c 94 58 00 	jmp	0xb0	; 0xb0 <__bad_interrupt>
  1c:	0c 94 58 00 	jmp	0xb0	; 0xb0 <__bad_interrupt>
  20:	0c 94 58 00 	jmp	0xb0	; 0xb0 <__bad_interrupt>
  24:	0c 94 58 00 	jmp	0xb0	; 0xb0 <__bad_interrupt>
  28:	0c 94 58 00 	jmp	0xb0	; 0xb0 <__bad_interrupt>
  2c:	0c 94 45 01 	jmp	0x28a	; 0x28a <__vector_11>
  30:	0c 94 58 00 	jmp	0xb0	; 0xb0 <__bad_interrupt>
  34:	0c 94 7a 00 	jmp	0xf4	; 0xf4 <__vector_13>
  38:	0c 94 58 00 	jmp	0xb0	; 0xb0 <__bad_interrupt>
  3c:	0c 94 58 00 	jmp	0xb0	; 0xb0 <__bad_interrupt>
  40:	0c 94 58 00 	jmp	0xb0	; 0xb0 <__bad_interrupt>
  44:	0c 94 58 00 	jmp	0xb0	; 0xb0 <__bad_interrupt>
  48:	0c 94 58 00 	jmp	0xb0	; 0xb0 <__bad_interrupt>
  4c:	0c 94 58 00 	jmp	0xb0	; 0xb0 <__bad_interrupt>
  50:	0c 94 58 00 	jmp	0xb0	; 0xb0 <__bad_interrupt>
  54:	82 01       	movw	r16, r4
  56:	85 01       	movw	r16, r10
  58:	88 01       	movw	r16, r16
  5a:	8b 01       	movw	r16, r22
  5c:	8e 01       	movw	r16, r28
  5e:	91 01       	movw	r18, r2
  60:	94 01       	movw	r18, r8
  62:	97 01       	movw	r18, r14
  64:	9a 01       	movw	r18, r20
  66:	9d 01       	movw	r18, r26
  68:	a0 01       	movw	r20, r0
  6a:	a3 01       	movw	r20, r6
  6c:	a6 01       	movw	r20, r12
  6e:	a9 01       	movw	r20, r18
  70:	ac 01       	movw	r20, r24
  72:	af 01       	movw	r20, r30
  74:	b2 01       	movw	r22, r4

00000076 <__ctors_end>:
  76:	11 24       	eor	r1, r1
  78:	1f be       	out	0x3f, r1	; 63
  7a:	cf e5       	ldi	r28, 0x5F	; 95
  7c:	d4 e0       	ldi	r29, 0x04	; 4
  7e:	de bf       	out	0x3e, r29	; 62
  80:	cd bf       	out	0x3d, r28	; 61

00000082 <__do_copy_data>:
  82:	10 e0       	ldi	r17, 0x00	; 0
  84:	a0 e6       	ldi	r26, 0x60	; 96
  86:	b0 e0       	ldi	r27, 0x00	; 0
  88:	ec e4       	ldi	r30, 0x4C	; 76
  8a:	f4 e0       	ldi	r31, 0x04	; 4
  8c:	02 c0       	rjmp	.+4      	; 0x92 <__do_copy_data+0x10>
  8e:	05 90       	lpm	r0, Z+
  90:	0d 92       	st	X+, r0
  92:	a6 36       	cpi	r26, 0x66	; 102
  94:	b1 07       	cpc	r27, r17
  96:	d9 f7       	brne	.-10     	; 0x8e <__do_copy_data+0xc>

00000098 <__do_clear_bss>:
  98:	20 e0       	ldi	r18, 0x00	; 0
  9a:	a6 e6       	ldi	r26, 0x66	; 102
  9c:	b0 e0       	ldi	r27, 0x00	; 0
  9e:	01 c0       	rjmp	.+2      	; 0xa2 <.do_clear_bss_start>

000000a0 <.do_clear_bss_loop>:
  a0:	1d 92       	st	X+, r1

000000a2 <.do_clear_bss_start>:
  a2:	a5 38       	cpi	r26, 0x85	; 133
  a4:	b2 07       	cpc	r27, r18
  a6:	e1 f7       	brne	.-8      	; 0xa0 <.do_clear_bss_loop>
  a8:	0e 94 eb 01 	call	0x3d6	; 0x3d6 <main>
  ac:	0c 94 24 02 	jmp	0x448	; 0x448 <_exit>

000000b0 <__bad_interrupt>:
  b0:	0c 94 00 00 	jmp	0	; 0x0 <__vectors>

000000b4 <_Z9UART_Initj>:
		}
	}
}
void ExchangeUART(unsigned char ADR_DBK[2], unsigned char DAN_DBK[6], unsigned char DATA_DBK[4], unsigned char CONTROL_DBK[2])
{
	USART_SendPacket(ADR_DBK, DAN_DBK, DATA_DBK, CONTROL_DBK);
  b4:	90 bd       	out	0x20, r25	; 32
  b6:	89 b9       	out	0x09, r24	; 9
  b8:	59 9a       	sbi	0x0b, 1	; 11
  ba:	88 ed       	ldi	r24, 0xD8	; 216
  bc:	8a b9       	out	0x0a, r24	; 10
  be:	8e e8       	ldi	r24, 0x8E	; 142
  c0:	80 bd       	out	0x20, r24	; 32
  c2:	08 95       	ret

000000c4 <_Z14UART_Send_Charh>:
  c4:	5d 9b       	sbis	0x0b, 5	; 11
  c6:	fe cf       	rjmp	.-4      	; 0xc4 <_Z14UART_Send_Charh>
  c8:	93 9a       	sbi	0x12, 3	; 18
  ca:	8c b9       	out	0x0c, r24	; 12
  cc:	08 95       	ret

000000ce <_Z15UART_SendStringPh>:
  ce:	0f 93       	push	r16
  d0:	1f 93       	push	r17
  d2:	cf 93       	push	r28
  d4:	df 93       	push	r29
  d6:	ec 01       	movw	r28, r24
  d8:	8c 01       	movw	r16, r24
  da:	0e 5e       	subi	r16, 0xEE	; 238
  dc:	1f 4f       	sbci	r17, 0xFF	; 255
  de:	89 91       	ld	r24, Y+
  e0:	0e 94 62 00 	call	0xc4	; 0xc4 <_Z14UART_Send_Charh>
  e4:	c0 17       	cp	r28, r16
  e6:	d1 07       	cpc	r29, r17
  e8:	d1 f7       	brne	.-12     	; 0xde <_Z15UART_SendStringPh+0x10>
  ea:	df 91       	pop	r29
  ec:	cf 91       	pop	r28
  ee:	1f 91       	pop	r17
  f0:	0f 91       	pop	r16
  f2:	08 95       	ret

000000f4 <__vector_13>:
  f4:	1f 92       	push	r1
  f6:	0f 92       	push	r0
  f8:	0f b6       	in	r0, 0x3f	; 63
  fa:	0f 92       	push	r0
  fc:	11 24       	eor	r1, r1
  fe:	93 98       	cbi	0x12, 3	; 18
 100:	0f 90       	pop	r0
 102:	0f be       	out	0x3f, r0	; 63
 104:	0f 90       	pop	r0
 106:	1f 90       	pop	r1
 108:	18 95       	reti

0000010a <_Z12crc16_commonPhh>:
 10a:	fc 01       	movw	r30, r24
 10c:	ac 01       	movw	r20, r24
 10e:	46 0f       	add	r20, r22
 110:	51 1d       	adc	r21, r1
 112:	80 e0       	ldi	r24, 0x00	; 0
 114:	90 e0       	ldi	r25, 0x00	; 0
 116:	e4 17       	cp	r30, r20
 118:	f5 07       	cpc	r31, r21
 11a:	81 f0       	breq	.+32     	; 0x13c <_Z12crc16_commonPhh+0x32>
 11c:	21 91       	ld	r18, Z+
 11e:	92 27       	eor	r25, r18
 120:	28 e0       	ldi	r18, 0x08	; 8
 122:	99 23       	and	r25, r25
 124:	34 f4       	brge	.+12     	; 0x132 <_Z12crc16_commonPhh+0x28>
 126:	88 0f       	add	r24, r24
 128:	99 1f       	adc	r25, r25
 12a:	35 e0       	ldi	r19, 0x05	; 5
 12c:	83 27       	eor	r24, r19
 12e:	90 58       	subi	r25, 0x80	; 128
 130:	02 c0       	rjmp	.+4      	; 0x136 <_Z12crc16_commonPhh+0x2c>
 132:	88 0f       	add	r24, r24
 134:	99 1f       	adc	r25, r25
 136:	21 50       	subi	r18, 0x01	; 1
 138:	a1 f7       	brne	.-24     	; 0x122 <_Z12crc16_commonPhh+0x18>
 13a:	ed cf       	rjmp	.-38     	; 0x116 <_Z12crc16_commonPhh+0xc>
 13c:	08 95       	ret

0000013e <_Z16USART_SendPacketPhS_S_S_>:
 13e:	8f 92       	push	r8
 140:	9f 92       	push	r9
 142:	af 92       	push	r10
 144:	bf 92       	push	r11
 146:	cf 92       	push	r12
 148:	df 92       	push	r13
 14a:	ef 92       	push	r14
 14c:	ff 92       	push	r15
 14e:	0f 93       	push	r16
 150:	1f 93       	push	r17
 152:	cf 93       	push	r28
 154:	df 93       	push	r29
 156:	cd b7       	in	r28, 0x3d	; 61
 158:	de b7       	in	r29, 0x3e	; 62
 15a:	a1 97       	sbiw	r28, 0x21	; 33
 15c:	0f b6       	in	r0, 0x3f	; 63
 15e:	f8 94       	cli
 160:	de bf       	out	0x3e, r29	; 62
 162:	0f be       	out	0x3f, r0	; 63
 164:	cd bf       	out	0x3d, r28	; 61
 166:	5c 01       	movw	r10, r24
 168:	8b 01       	movw	r16, r22
 16a:	7a 01       	movw	r14, r20
 16c:	49 01       	movw	r8, r18
 16e:	dc 01       	movw	r26, r24
 170:	8c 91       	ld	r24, X
 172:	89 83       	std	Y+1, r24	; 0x01
 174:	11 96       	adiw	r26, 0x01	; 1
 176:	8c 91       	ld	r24, X
 178:	8a 83       	std	Y+2, r24	; 0x02
 17a:	0f 2e       	mov	r0, r31
 17c:	f1 e8       	ldi	r31, 0x81	; 129
 17e:	cf 2e       	mov	r12, r31
 180:	f0 e0       	ldi	r31, 0x00	; 0
 182:	df 2e       	mov	r13, r31
 184:	f0 2d       	mov	r31, r0
 186:	f6 01       	movw	r30, r12
 188:	80 81       	ld	r24, Z
 18a:	8b 83       	std	Y+3, r24	; 0x03
 18c:	81 81       	ldd	r24, Z+1	; 0x01
 18e:	8c 83       	std	Y+4, r24	; 0x04
 190:	80 91 80 00 	lds	r24, 0x0080	; 0x800080 <DIAG_DBK>
 194:	8d 83       	std	Y+5, r24	; 0x05
 196:	db 01       	movw	r26, r22
 198:	8c 91       	ld	r24, X
 19a:	8e 83       	std	Y+6, r24	; 0x06
 19c:	11 96       	adiw	r26, 0x01	; 1
 19e:	8c 91       	ld	r24, X
 1a0:	11 97       	sbiw	r26, 0x01	; 1
 1a2:	8f 83       	std	Y+7, r24	; 0x07
 1a4:	12 96       	adiw	r26, 0x02	; 2
 1a6:	8c 91       	ld	r24, X
 1a8:	12 97       	sbiw	r26, 0x02	; 2
 1aa:	88 87       	std	Y+8, r24	; 0x08
 1ac:	13 96       	adiw	r26, 0x03	; 3
 1ae:	8c 91       	ld	r24, X
 1b0:	13 97       	sbiw	r26, 0x03	; 3
 1b2:	89 87       	std	Y+9, r24	; 0x09
 1b4:	14 96       	adiw	r26, 0x04	; 4
 1b6:	8c 91       	ld	r24, X
 1b8:	14 97       	sbiw	r26, 0x04	; 4
 1ba:	8a 87       	std	Y+10, r24	; 0x0a
 1bc:	15 96       	adiw	r26, 0x05	; 5
 1be:	8c 91       	ld	r24, X
 1c0:	8b 87       	std	Y+11, r24	; 0x0b
 1c2:	fa 01       	movw	r30, r20
 1c4:	80 81       	ld	r24, Z
 1c6:	8c 87       	std	Y+12, r24	; 0x0c
 1c8:	81 81       	ldd	r24, Z+1	; 0x01
 1ca:	8d 87       	std	Y+13, r24	; 0x0d
 1cc:	82 81       	ldd	r24, Z+2	; 0x02
 1ce:	8e 87       	std	Y+14, r24	; 0x0e
 1d0:	83 81       	ldd	r24, Z+3	; 0x03
 1d2:	8f 87       	std	Y+15, r24	; 0x0f
 1d4:	6f e0       	ldi	r22, 0x0F	; 15
 1d6:	ce 01       	movw	r24, r28
 1d8:	01 96       	adiw	r24, 0x01	; 1
 1da:	0e 94 85 00 	call	0x10a	; 0x10a <_Z12crc16_commonPhh>
 1de:	d4 01       	movw	r26, r8
 1e0:	9c 93       	st	X, r25
 1e2:	11 96       	adiw	r26, 0x01	; 1
 1e4:	8c 93       	st	X, r24
 1e6:	fe 01       	movw	r30, r28
 1e8:	70 96       	adiw	r30, 0x10	; 16
 1ea:	22 e1       	ldi	r18, 0x12	; 18
 1ec:	df 01       	movw	r26, r30
 1ee:	1d 92       	st	X+, r1
 1f0:	2a 95       	dec	r18
 1f2:	e9 f7       	brne	.-6      	; 0x1ee <_Z16USART_SendPacketPhS_S_S_+0xb0>
 1f4:	d5 01       	movw	r26, r10
 1f6:	2c 91       	ld	r18, X
 1f8:	29 8b       	std	Y+17, r18	; 0x11
 1fa:	11 96       	adiw	r26, 0x01	; 1
 1fc:	2c 91       	ld	r18, X
 1fe:	2a 8b       	std	Y+18, r18	; 0x12
 200:	d6 01       	movw	r26, r12
 202:	2c 91       	ld	r18, X
 204:	2b 8b       	std	Y+19, r18	; 0x13
 206:	11 96       	adiw	r26, 0x01	; 1
 208:	2c 91       	ld	r18, X
 20a:	2c 8b       	std	Y+20, r18	; 0x14
 20c:	20 91 80 00 	lds	r18, 0x0080	; 0x800080 <DIAG_DBK>
 210:	2d 8b       	std	Y+21, r18	; 0x15
 212:	d8 01       	movw	r26, r16
 214:	2c 91       	ld	r18, X
 216:	2e 8b       	std	Y+22, r18	; 0x16
 218:	11 96       	adiw	r26, 0x01	; 1
 21a:	2c 91       	ld	r18, X
 21c:	11 97       	sbiw	r26, 0x01	; 1
 21e:	2f 8b       	std	Y+23, r18	; 0x17
 220:	12 96       	adiw	r26, 0x02	; 2
 222:	2c 91       	ld	r18, X
 224:	12 97       	sbiw	r26, 0x02	; 2
 226:	28 8f       	std	Y+24, r18	; 0x18
 228:	13 96       	adiw	r26, 0x03	; 3
 22a:	2c 91       	ld	r18, X
 22c:	13 97       	sbiw	r26, 0x03	; 3
 22e:	29 8f       	std	Y+25, r18	; 0x19
 230:	14 96       	adiw	r26, 0x04	; 4
 232:	2c 91       	ld	r18, X
 234:	14 97       	sbiw	r26, 0x04	; 4
 236:	2a 8f       	std	Y+26, r18	; 0x1a
 238:	15 96       	adiw	r26, 0x05	; 5
 23a:	2c 91       	ld	r18, X
 23c:	2b 8f       	std	Y+27, r18	; 0x1b
 23e:	d7 01       	movw	r26, r14
 240:	2c 91       	ld	r18, X
 242:	2c 8f       	std	Y+28, r18	; 0x1c
 244:	11 96       	adiw	r26, 0x01	; 1
 246:	2c 91       	ld	r18, X
 248:	11 97       	sbiw	r26, 0x01	; 1
 24a:	2d 8f       	std	Y+29, r18	; 0x1d
 24c:	12 96       	adiw	r26, 0x02	; 2
 24e:	2c 91       	ld	r18, X
 250:	12 97       	sbiw	r26, 0x02	; 2
 252:	2e 8f       	std	Y+30, r18	; 0x1e
 254:	13 96       	adiw	r26, 0x03	; 3
 256:	2c 91       	ld	r18, X
 258:	2f 8f       	std	Y+31, r18	; 0x1f
 25a:	98 a3       	std	Y+32, r25	; 0x20
 25c:	89 a3       	std	Y+33, r24	; 0x21
 25e:	cf 01       	movw	r24, r30
 260:	0e 94 67 00 	call	0xce	; 0xce <_Z15UART_SendStringPh>
 264:	a1 96       	adiw	r28, 0x21	; 33
 266:	0f b6       	in	r0, 0x3f	; 63
 268:	f8 94       	cli
 26a:	de bf       	out	0x3e, r29	; 62
 26c:	0f be       	out	0x3f, r0	; 63
 26e:	cd bf       	out	0x3d, r28	; 61
 270:	df 91       	pop	r29
 272:	cf 91       	pop	r28
 274:	1f 91       	pop	r17
 276:	0f 91       	pop	r16
 278:	ff 90       	pop	r15
 27a:	ef 90       	pop	r14
 27c:	df 90       	pop	r13
 27e:	cf 90       	pop	r12
 280:	bf 90       	pop	r11
 282:	af 90       	pop	r10
 284:	9f 90       	pop	r9
 286:	8f 90       	pop	r8
 288:	08 95       	ret

0000028a <__vector_11>:
 28a:	1f 92       	push	r1
 28c:	0f 92       	push	r0
 28e:	0f b6       	in	r0, 0x3f	; 63
 290:	0f 92       	push	r0
 292:	11 24       	eor	r1, r1
 294:	4f 93       	push	r20
 296:	5f 93       	push	r21
 298:	6f 93       	push	r22
 29a:	7f 93       	push	r23
 29c:	8f 93       	push	r24
 29e:	9f 93       	push	r25
 2a0:	af 93       	push	r26
 2a2:	bf 93       	push	r27
 2a4:	ef 93       	push	r30
 2a6:	ff 93       	push	r31
 2a8:	8b b1       	in	r24, 0x0b	; 11
 2aa:	9c b1       	in	r25, 0x0c	; 12
 2ac:	88 71       	andi	r24, 0x18	; 24
 2ae:	09 f0       	breq	.+2      	; 0x2b2 <__vector_11+0x28>
 2b0:	73 c0       	rjmp	.+230    	; 0x398 <__vector_11+0x10e>
 2b2:	80 91 67 00 	lds	r24, 0x0067	; 0x800067 <ex_rx_enable>
 2b6:	81 11       	cpse	r24, r1
 2b8:	62 c0       	rjmp	.+196    	; 0x37e <__vector_11+0xf4>
 2ba:	91 11       	cpse	r25, r1
 2bc:	6d c0       	rjmp	.+218    	; 0x398 <__vector_11+0x10e>
 2be:	10 92 79 00 	sts	0x0079, r1	; 0x800079 <ex_rx_buffer_ADRESS_DBK+0x1>
 2c2:	10 92 78 00 	sts	0x0078, r1	; 0x800078 <ex_rx_buffer_ADRESS_DBK>
 2c6:	10 92 77 00 	sts	0x0077, r1	; 0x800077 <ex_rx_buffer_DIEN_DBK+0x1>
 2ca:	10 92 76 00 	sts	0x0076, r1	; 0x800076 <ex_rx_buffer_DIEN_DBK>
 2ce:	10 92 75 00 	sts	0x0075, r1	; 0x800075 <ex_rx_buffer_DIAG_DBK>
 2d2:	86 e0       	ldi	r24, 0x06	; 6
 2d4:	ef e6       	ldi	r30, 0x6F	; 111
 2d6:	f0 e0       	ldi	r31, 0x00	; 0
 2d8:	df 01       	movw	r26, r30
 2da:	1d 92       	st	X+, r1
 2dc:	8a 95       	dec	r24
 2de:	e9 f7       	brne	.-6      	; 0x2da <__vector_11+0x50>
 2e0:	84 e0       	ldi	r24, 0x04	; 4
 2e2:	eb e6       	ldi	r30, 0x6B	; 107
 2e4:	f0 e0       	ldi	r31, 0x00	; 0
 2e6:	df 01       	movw	r26, r30
 2e8:	1d 92       	st	X+, r1
 2ea:	8a 95       	dec	r24
 2ec:	e9 f7       	brne	.-6      	; 0x2e8 <__vector_11+0x5e>
 2ee:	10 92 6a 00 	sts	0x006A, r1	; 0x80006a <ex_rx_buffer_CONTROL_DBK+0x1>
 2f2:	10 92 69 00 	sts	0x0069, r1	; 0x800069 <ex_rx_buffer_CONTROL_DBK>
 2f6:	81 e0       	ldi	r24, 0x01	; 1
 2f8:	80 93 67 00 	sts	0x0067, r24	; 0x800067 <ex_rx_enable>
 2fc:	10 92 66 00 	sts	0x0066, r1	; 0x800066 <__data_end>
 300:	80 e0       	ldi	r24, 0x00	; 0
 302:	32 c0       	rjmp	.+100    	; 0x368 <__vector_11+0xde>
 304:	90 93 78 00 	sts	0x0078, r25	; 0x800078 <ex_rx_buffer_ADRESS_DBK>
 308:	2f c0       	rjmp	.+94     	; 0x368 <__vector_11+0xde>
 30a:	90 93 79 00 	sts	0x0079, r25	; 0x800079 <ex_rx_buffer_ADRESS_DBK+0x1>
 30e:	2c c0       	rjmp	.+88     	; 0x368 <__vector_11+0xde>
 310:	90 93 76 00 	sts	0x0076, r25	; 0x800076 <ex_rx_buffer_DIEN_DBK>
 314:	29 c0       	rjmp	.+82     	; 0x368 <__vector_11+0xde>
 316:	90 93 77 00 	sts	0x0077, r25	; 0x800077 <ex_rx_buffer_DIEN_DBK+0x1>
 31a:	26 c0       	rjmp	.+76     	; 0x368 <__vector_11+0xde>
 31c:	90 93 75 00 	sts	0x0075, r25	; 0x800075 <ex_rx_buffer_DIAG_DBK>
 320:	23 c0       	rjmp	.+70     	; 0x368 <__vector_11+0xde>
 322:	90 93 6f 00 	sts	0x006F, r25	; 0x80006f <ex_rx_buffer_DAN_DBK>
 326:	20 c0       	rjmp	.+64     	; 0x368 <__vector_11+0xde>
 328:	90 93 70 00 	sts	0x0070, r25	; 0x800070 <ex_rx_buffer_DAN_DBK+0x1>
 32c:	1d c0       	rjmp	.+58     	; 0x368 <__vector_11+0xde>
 32e:	90 93 71 00 	sts	0x0071, r25	; 0x800071 <ex_rx_buffer_DAN_DBK+0x2>
 332:	1a c0       	rjmp	.+52     	; 0x368 <__vector_11+0xde>
 334:	90 93 72 00 	sts	0x0072, r25	; 0x800072 <ex_rx_buffer_DAN_DBK+0x3>
 338:	17 c0       	rjmp	.+46     	; 0x368 <__vector_11+0xde>
 33a:	90 93 73 00 	sts	0x0073, r25	; 0x800073 <ex_rx_buffer_DAN_DBK+0x4>
 33e:	14 c0       	rjmp	.+40     	; 0x368 <__vector_11+0xde>
 340:	90 93 74 00 	sts	0x0074, r25	; 0x800074 <ex_rx_buffer_DAN_DBK+0x5>
 344:	11 c0       	rjmp	.+34     	; 0x368 <__vector_11+0xde>
 346:	90 93 6b 00 	sts	0x006B, r25	; 0x80006b <ex_rx_buffer_DATA_DBK>
 34a:	0e c0       	rjmp	.+28     	; 0x368 <__vector_11+0xde>
 34c:	90 93 6c 00 	sts	0x006C, r25	; 0x80006c <ex_rx_buffer_DATA_DBK+0x1>
 350:	0b c0       	rjmp	.+22     	; 0x368 <__vector_11+0xde>
 352:	90 93 6d 00 	sts	0x006D, r25	; 0x80006d <ex_rx_buffer_DATA_DBK+0x2>
 356:	08 c0       	rjmp	.+16     	; 0x368 <__vector_11+0xde>
 358:	90 93 6e 00 	sts	0x006E, r25	; 0x80006e <ex_rx_buffer_DATA_DBK+0x3>
 35c:	05 c0       	rjmp	.+10     	; 0x368 <__vector_11+0xde>
 35e:	90 93 69 00 	sts	0x0069, r25	; 0x800069 <ex_rx_buffer_CONTROL_DBK>
 362:	02 c0       	rjmp	.+4      	; 0x368 <__vector_11+0xde>
 364:	90 93 6a 00 	sts	0x006A, r25	; 0x80006a <ex_rx_buffer_CONTROL_DBK+0x1>
 368:	8f 5f       	subi	r24, 0xFF	; 255
 36a:	80 93 68 00 	sts	0x0068, r24	; 0x800068 <ex_rx_index>
 36e:	82 31       	cpi	r24, 0x12	; 18
 370:	98 f0       	brcs	.+38     	; 0x398 <__vector_11+0x10e>
 372:	10 92 67 00 	sts	0x0067, r1	; 0x800067 <ex_rx_enable>
 376:	81 e0       	ldi	r24, 0x01	; 1
 378:	80 93 66 00 	sts	0x0066, r24	; 0x800066 <__data_end>
 37c:	0d c0       	rjmp	.+26     	; 0x398 <__vector_11+0x10e>
 37e:	80 91 68 00 	lds	r24, 0x0068	; 0x800068 <ex_rx_index>
 382:	48 2f       	mov	r20, r24
 384:	50 e0       	ldi	r21, 0x00	; 0
 386:	fa 01       	movw	r30, r20
 388:	31 97       	sbiw	r30, 0x01	; 1
 38a:	e1 31       	cpi	r30, 0x11	; 17
 38c:	f1 05       	cpc	r31, r1
 38e:	60 f7       	brcc	.-40     	; 0x368 <__vector_11+0xde>
 390:	e6 5d       	subi	r30, 0xD6	; 214
 392:	ff 4f       	sbci	r31, 0xFF	; 255
 394:	0c 94 1e 02 	jmp	0x43c	; 0x43c <__tablejump2__>
 398:	ff 91       	pop	r31
 39a:	ef 91       	pop	r30
 39c:	bf 91       	pop	r27
 39e:	af 91       	pop	r26
 3a0:	9f 91       	pop	r25
 3a2:	8f 91       	pop	r24
 3a4:	7f 91       	pop	r23
 3a6:	6f 91       	pop	r22
 3a8:	5f 91       	pop	r21
 3aa:	4f 91       	pop	r20
 3ac:	0f 90       	pop	r0
 3ae:	0f be       	out	0x3f, r0	; 63
 3b0:	0f 90       	pop	r0
 3b2:	1f 90       	pop	r1
 3b4:	18 95       	reti

000003b6 <_Z7ZeStempPh>:
		{
			memset(DATA_DBK, 0, 4);
			j = 0;
		}
	}
	return DATA_DBK[j]++;
 3b6:	21 e0       	ldi	r18, 0x01	; 1
 3b8:	30 e0       	ldi	r19, 0x00	; 0
 3ba:	fc 01       	movw	r30, r24
 3bc:	40 81       	ld	r20, Z
 3be:	4f 3f       	cpi	r20, 0xFF	; 255
 3c0:	11 f0       	breq	.+4      	; 0x3c6 <_Z7ZeStempPh+0x10>
 3c2:	20 e0       	ldi	r18, 0x00	; 0
 3c4:	30 e0       	ldi	r19, 0x00	; 0
 3c6:	fc 01       	movw	r30, r24
 3c8:	e2 0f       	add	r30, r18
 3ca:	f3 1f       	adc	r31, r19
 3cc:	80 81       	ld	r24, Z
 3ce:	91 e0       	ldi	r25, 0x01	; 1
 3d0:	98 0f       	add	r25, r24
 3d2:	90 83       	st	Z, r25
}
 3d4:	08 95       	ret

000003d6 <main>:
int main(void)
{
	UART_Init(8); // Инициализация UART 115200
 3d6:	88 e0       	ldi	r24, 0x08	; 8
 3d8:	90 e0       	ldi	r25, 0x00	; 0
 3da:	0e 94 5a 00 	call	0xb4	; 0xb4 <_Z9UART_Initj>
	// Адрес опрашиваемого ДБК
	ADR_DBK[0] = 0x01;
 3de:	e3 e8       	ldi	r30, 0x83	; 131
 3e0:	f0 e0       	ldi	r31, 0x00	; 0
 3e2:	81 e0       	ldi	r24, 0x01	; 1
 3e4:	80 83       	st	Z, r24
	ADR_DBK[1] = 0x5E;
 3e6:	9e e5       	ldi	r25, 0x5E	; 94
 3e8:	91 83       	std	Z+1, r25	; 0x01
	// Команда Открыть переезд
	DAN_DBK[0] = 0x01;  
 3ea:	80 93 60 00 	sts	0x0060, r24	; 0x800060 <__DATA_REGION_ORIGIN__>
	//Установка метки времени
	DATA_DBK[4] = ZeStemp(DATA_DBK);
 3ee:	8c e7       	ldi	r24, 0x7C	; 124
 3f0:	90 e0       	ldi	r25, 0x00	; 0
 3f2:	0e 94 db 01 	call	0x3b6	; 0x3b6 <_Z7ZeStempPh>
 3f6:	80 93 80 00 	sts	0x0080, r24	; 0x800080 <DIAG_DBK>
	//
	DDRD |= ( 1 << PD3);	// Порт на выход
 3fa:	8b 9a       	sbi	0x11, 3	; 17
	RS485_RS; // Установить RE DE в 0. Прием
 3fc:	93 98       	cbi	0x12, 3	; 18
	DDRC |= ( 1 << PC0) | ( 1 << PC1);	// Порт на выход
 3fe:	84 b3       	in	r24, 0x14	; 20
 400:	83 60       	ori	r24, 0x03	; 3
 402:	84 bb       	out	0x14, r24	; 20
	sei();
 404:	78 94       	sei
	USART_SendPacket(ADR_DBK, DAN_DBK, DATA_DBK, CONTROL_DBK);
 406:	2a e7       	ldi	r18, 0x7A	; 122
 408:	30 e0       	ldi	r19, 0x00	; 0
 40a:	4c e7       	ldi	r20, 0x7C	; 124
 40c:	50 e0       	ldi	r21, 0x00	; 0
 40e:	60 e6       	ldi	r22, 0x60	; 96
 410:	70 e0       	ldi	r23, 0x00	; 0
 412:	83 e8       	ldi	r24, 0x83	; 131
 414:	90 e0       	ldi	r25, 0x00	; 0
 416:	0e 94 9f 00 	call	0x13e	; 0x13e <_Z16USART_SendPacketPhS_S_S_>
	while(1)
	{
		//_delay_ms(1);
		if (ex_rx_data_complite)
 41a:	80 91 66 00 	lds	r24, 0x0066	; 0x800066 <__data_end>
 41e:	88 23       	and	r24, r24
 420:	f1 f3       	breq	.-4      	; 0x41e <__LOCK_REGION_LENGTH__+0x1e>
		{
			ex_rx_data_complite = false;
 422:	10 92 66 00 	sts	0x0066, r1	; 0x800066 <__data_end>
		}
	}
}
void ExchangeUART(unsigned char ADR_DBK[2], unsigned char DAN_DBK[6], unsigned char DATA_DBK[4], unsigned char CONTROL_DBK[2])
{
	USART_SendPacket(ADR_DBK, DAN_DBK, DATA_DBK, CONTROL_DBK);
 426:	29 e6       	ldi	r18, 0x69	; 105
 428:	30 e0       	ldi	r19, 0x00	; 0
 42a:	4b e6       	ldi	r20, 0x6B	; 107
 42c:	50 e0       	ldi	r21, 0x00	; 0
 42e:	6f e6       	ldi	r22, 0x6F	; 111
 430:	70 e0       	ldi	r23, 0x00	; 0
 432:	88 e7       	ldi	r24, 0x78	; 120
 434:	90 e0       	ldi	r25, 0x00	; 0
 436:	0e 94 9f 00 	call	0x13e	; 0x13e <_Z16USART_SendPacketPhS_S_S_>
 43a:	ef cf       	rjmp	.-34     	; 0x41a <__LOCK_REGION_LENGTH__+0x1a>

0000043c <__tablejump2__>:
 43c:	ee 0f       	add	r30, r30
 43e:	ff 1f       	adc	r31, r31
 440:	05 90       	lpm	r0, Z+
 442:	f4 91       	lpm	r31, Z
 444:	e0 2d       	mov	r30, r0
 446:	09 94       	ijmp

00000448 <_exit>:
 448:	f8 94       	cli

0000044a <__stop_program>:
 44a:	ff cf       	rjmp	.-2      	; 0x44a <__stop_program>
